target datalayout = "e-m:e-p270:32:32-p271:32:32-p272:64:64-i64:64-i128:128-f80:128-n8:16:32:64-S128"
target triple = "x86_64-pc-linux-gnu"

%struct.CompactAttribute = type { i32, i16, i8, i8, i8, i8, i8, i8, i8 }
%struct.TupleDescData = type { i32, i32, i32, i32, ptr, [0 x %struct.CompactAttribute] }
%struct.HeapTupleData = type { i32, %struct.ItemPointerData, i32, ptr }
%struct.ItemPointerData = type { %struct.BlockIdData, i16 }
%struct.BlockIdData = type { i16, i16 }
%struct.HeapTupleHeaderData = type { %union.anon, %struct.ItemPointerData, i16, i16, i8, [0 x i8] }
%union.anon = type { %struct.HeapTupleFields }
%struct.HeapTupleFields = type { i32, i32, %union.anon.1 }
%union.anon.1 = type { i32 }

@.str = private unnamed_addr constant [19 x i8] c"invalid attnum: %d\00", align 1
@.str.1 = private unnamed_addr constant [12 x i8] c"heaptuple.c\00", align 1
@__func__.heap_attisnull = private unnamed_addr constant [15 x i8] c"heap_attisnull\00", align 1

; Function Attrs: inlinehint nounwind uwtable
define internal zeroext i1 @HeapTupleHasNulls(ptr noundef %0) #2 {
  %2 = alloca ptr, align 8
  store ptr %0, ptr %2, align 8
  %3 = load ptr, ptr %2, align 8
  %4 = getelementptr inbounds nuw %struct.HeapTupleData, ptr %3, i32 0, i32 3
  %5 = load ptr, ptr %4, align 8
  %6 = getelementptr inbounds nuw %struct.HeapTupleHeaderData, ptr %5, i32 0, i32 3
  %7 = load i16, ptr %6, align 4
  %8 = zext i16 %7 to i32
  %9 = and i32 %8, 1
  %10 = icmp ne i32 %9, 0
  ret i1 %10
}

; Function Attrs: inlinehint nounwind uwtable
define internal zeroext i1 @att_isnull(i32 noundef %0, ptr noundef %1) #2 {
  %3 = alloca i32, align 4
  %4 = alloca ptr, align 8
  store i32 %0, ptr %3, align 4
  store ptr %1, ptr %4, align 8
  %5 = load ptr, ptr %4, align 8
  %6 = load i32, ptr %3, align 4
  %7 = ashr i32 %6, 3
  %8 = sext i32 %7 to i64
  %9 = getelementptr inbounds i8, ptr %5, i64 %8
  %10 = load i8, ptr %9, align 1
  %11 = zext i8 %10 to i32
  %12 = load i32, ptr %3, align 4
  %13 = and i32 %12, 7
  %14 = shl i32 1, %13
  %15 = and i32 %11, %14
  %16 = icmp ne i32 %15, 0
  %17 = xor i1 %16, true
  ret i1 %17
}

; Function Attrs: inlinehint nounwind uwtable
define internal zeroext i1 @HeapTupleNoNulls(ptr noundef %0) #2 {
  %2 = alloca ptr, align 8
  store ptr %0, ptr %2, align 8
  %3 = load ptr, ptr %2, align 8
  %4 = call zeroext i1 @HeapTupleHasNulls(ptr noundef %3)
  %5 = xor i1 %4, true
  ret i1 %5
}

; Function Attrs: inlinehint nounwind uwtable
define internal ptr @TupleDescCompactAttr(ptr noundef %0, i32 noundef %1) #2 {
  %3 = alloca ptr, align 8
  %4 = alloca i32, align 4
  %5 = alloca ptr, align 8
  store ptr %0, ptr %3, align 8
  store i32 %1, ptr %4, align 4
  call void @llvm.lifetime.start.p0(i64 8, ptr %5) #8
  %6 = load ptr, ptr %3, align 8
  %7 = getelementptr inbounds nuw %struct.TupleDescData, ptr %6, i32 0, i32 5
  %8 = load i32, ptr %4, align 4
  %9 = sext i32 %8 to i64
  %10 = getelementptr inbounds [0 x %struct.CompactAttribute], ptr %7, i64 0, i64 %9
  store ptr %10, ptr %5, align 8
  %11 = load ptr, ptr %5, align 8
  call void @llvm.lifetime.end.p0(i64 8, ptr %5) #8
  ret ptr %11
}

; Function Attrs: nounwind uwtable
define dso_local zeroext i1 @heap_attisnull(ptr noundef %0, i32 noundef %1, ptr noundef %2) #0 {
  %4 = alloca i1, align 1
  %5 = alloca ptr, align 8
  %6 = alloca i32, align 4
  %7 = alloca ptr, align 8
  store ptr %0, ptr %5, align 8
  store i32 %1, ptr %6, align 4
  store ptr %2, ptr %7, align 8
  %8 = load i32, ptr %6, align 4
  %9 = load ptr, ptr %5, align 8
  %10 = getelementptr inbounds nuw %struct.HeapTupleData, ptr %9, i32 0, i32 3
  %11 = load ptr, ptr %10, align 8
  %12 = getelementptr inbounds nuw %struct.HeapTupleHeaderData, ptr %11, i32 0, i32 2
  %13 = load i16, ptr %12, align 2
  %14 = zext i16 %13 to i32
  %15 = and i32 %14, 2047
  %16 = icmp sgt i32 %8, %15
  br i1 %16, label %17, label %30

17:                                               ; preds = %3
  %18 = load ptr, ptr %7, align 8
  %19 = icmp ne ptr %18, null
  br i1 %19, label %20, label %29

20:                                               ; preds = %17
  %21 = load ptr, ptr %7, align 8
  %22 = load i32, ptr %6, align 4
  %23 = sub i32 %22, 1
  %24 = call ptr @TupleDescCompactAttr(ptr noundef %21, i32 noundef %23)
  %25 = getelementptr inbounds nuw %struct.CompactAttribute, ptr %24, i32 0, i32 4
  %26 = load i8, ptr %25, align 4, !range !4, !noundef !5
  %27 = trunc i8 %26 to i1
  br i1 %27, label %28, label %29

28:                                               ; preds = %20
  store i1 false, ptr %4, align 1
  br label %61

29:                                               ; preds = %20, %17
  store i1 true, ptr %4, align 1
  br label %61

30:                                               ; preds = %3
  %31 = load i32, ptr %6, align 4
  %32 = icmp sgt i32 %31, 0
  br i1 %32, label %33, label %46

33:                                               ; preds = %30
  %34 = load ptr, ptr %5, align 8
  %35 = call zeroext i1 @HeapTupleNoNulls(ptr noundef %34)
  br i1 %35, label %36, label %37

36:                                               ; preds = %33
  store i1 false, ptr %4, align 1
  br label %61

37:                                               ; preds = %33
  %38 = load i32, ptr %6, align 4
  %39 = sub i32 %38, 1
  %40 = load ptr, ptr %5, align 8
  %41 = getelementptr inbounds nuw %struct.HeapTupleData, ptr %40, i32 0, i32 3
  %42 = load ptr, ptr %41, align 8
  %43 = getelementptr inbounds nuw %struct.HeapTupleHeaderData, ptr %42, i32 0, i32 5
  %44 = getelementptr inbounds [0 x i8], ptr %43, i64 0, i64 0
  %45 = call zeroext i1 @att_isnull(i32 noundef %39, ptr noundef %44)
  store i1 %45, ptr %4, align 1
  br label %61

46:                                               ; preds = %30
  %47 = load i32, ptr %6, align 4
  switch i32 %47, label %49 [
    i32 -6, label %48
    i32 -1, label %48
    i32 -2, label %48
    i32 -3, label %48
    i32 -4, label %48
    i32 -5, label %48
  ]

48:                                               ; preds = %46, %46, %46, %46, %46, %46
  br label %60

49:                                               ; preds = %46
  br label %50

50:                                               ; preds = %49
  br i1 true, label %51, label %53

51:                                               ; preds = %50
  %52 = call zeroext i1 @errstart_cold(i32 noundef 21, ptr noundef null) #10
  br i1 %52, label %55, label %58

53:                                               ; preds = %50
  %54 = call zeroext i1 @errstart(i32 noundef 21, ptr noundef null)
  br i1 %54, label %55, label %58

55:                                               ; preds = %53, %51
  %56 = load i32, ptr %6, align 4
  %57 = call i32 (ptr, ...) @errmsg_internal(ptr noundef @.str, i32 noundef %56)
  call void @errfinish(ptr noundef @.str.1, i32 noundef 491, ptr noundef @__func__.heap_attisnull)
  br label %58

58:                                               ; preds = %55, %53, %51
  unreachable

59:                                               ; No predecessors!
  br label %60

60:                                               ; preds = %59, %48
  store i1 false, ptr %4, align 1
  br label %61

61:                                               ; preds = %60, %37, %36, %29, %28
  %62 = load i1, ptr %4, align 1
  ret i1 %62
}