; Function Attrs: nounwind uwtable
define dso_local zeroext i1 @heap_attisnull(ptr noundef readonly captures(none) %0, i32 noundef %1, ptr noundef readonly captures(address_is_null) %2) local_unnamed_addr #0 {
  %4 = getelementptr inbounds nuw i8, ptr %0, i64 16
  %5 = load ptr, ptr %4, align 8
  %6 = getelementptr inbounds nuw i8, ptr %5, i64 18
  %7 = load i16, ptr %6, align 2
  %8 = and i16 %7, 2047
  %9 = zext nneg i16 %8 to i32
  %10 = icmp sgt i32 %1, %9
  br i1 %10, label %11, label %20

11:                                               ; preds = %3
  %.not = icmp eq ptr %2, null
  br i1 %.not, label %19, label %12

12:                                               ; preds = %11
  %13 = add nsw i32 %1, -1
  %14 = zext nneg i32 %13 to i64
  %.idx = shl nuw nsw i64 %14, 4
  %15 = getelementptr i8, ptr %2, i64 32
  %16 = getelementptr i8, ptr %15, i64 %.idx
  %17 = load i8, ptr %16, align 4, !range !4, !noundef !5
  %18 = trunc nuw i8 %17 to i1
  br i1 %18, label %40, label %19

19:                                               ; preds = %12, %11
  br label %40

20:                                               ; preds = %3
  %21 = icmp sgt i32 %1, 0
  br i1 %21, label %22, label %36

22:                                               ; preds = %20
  %23 = getelementptr i8, ptr %5, i64 20
  %.val.val = load i16, ptr %23, align 4
  %24 = and i16 %.val.val, 1
  %.not.i = icmp eq i16 %24, 0
  br i1 %.not.i, label %40, label %25

25:                                               ; preds = %22
  %26 = add nsw i32 %1, -1
  %27 = getelementptr inbounds nuw i8, ptr %5, i64 23
  %28 = lshr i32 %26, 3
  %29 = zext nneg i32 %28 to i64
  %30 = getelementptr inbounds nuw i8, ptr %27, i64 %29
  %31 = load i8, ptr %30, align 1
  %32 = zext i8 %31 to i32
  %33 = and i32 %26, 7
  %34 = shl nuw nsw i32 1, %33
  %35 = and i32 %34, %32
  %.not.i13 = icmp eq i32 %35, 0
  br label %40

36:                                               ; preds = %20
  %switch = icmp ugt i32 %1, -7
  br i1 %switch, label %40, label %37

37:                                               ; preds = %36
  %38 = tail call zeroext i1 @errstart_cold(i32 noundef 21, ptr noundef null) #14
  tail call void @llvm.assume(i1 %38)
  %39 = tail call i32 (ptr, ...) @errmsg_internal(ptr noundef nonnull @.str, i32 noundef %1) #12
  tail call void @errfinish(ptr noundef nonnull @.str.1, i32 noundef 491, ptr noundef nonnull @__func__.heap_attisnull) #12
  unreachable

40:                                               ; preds = %36, %22, %12, %25, %19
  %.0 = phi i1 [ true, %19 ], [ %.not.i13, %25 ], [ false, %12 ], [ false, %22 ], [ false, %36 ]
  ret i1 %.0
}